target datalayout = "e-m:e-p270:32:32-p271:32:32-p272:64:64-i64:64-i128:128-f80:128-n8:16:32:64-S128"
target triple = "x86_64-unknown-linux-gnu"

%struct.Token = type { i32, ptr, i64, x86_fp80, ptr, i32, ptr, ptr, ptr, ptr, i32, i32, i8, i8, ptr, ptr }
%struct.Type = type { i32, i32, i32, i8, i8, ptr, ptr, ptr, ptr, i32, ptr, ptr, ptr, i8, i8, ptr, ptr, i8, ptr }
%struct.Initializer = type { ptr, ptr, ptr, i8, ptr, ptr, ptr }

@.str.56 = private unnamed_addr constant [2 x i8] c"[\00", align 1
@.str.57 = private unnamed_addr constant [2 x i8] c",\00", align 1
@.str.67 = private unnamed_addr constant [2 x i8] c".\00", align 1
@.str.69 = private unnamed_addr constant [2 x i8] c"}\00", align 1

; Function Attrs: nounwind uwtable
define internal zeroext i1 @is_end(ptr noundef %tok) #0 {
entry:
  %tok.addr = alloca ptr, align 8
  store ptr %tok, ptr %tok.addr, align 8
  %0 = load ptr, ptr %tok.addr, align 8
  %call = call zeroext i1 @equal(ptr noundef %0, ptr noundef @.str.69)
  br i1 %call, label %lor.end, label %lor.rhs

lor.rhs:                                          ; preds = %entry
  %1 = load ptr, ptr %tok.addr, align 8
  %call1 = call zeroext i1 @equal(ptr noundef %1, ptr noundef @.str.57)
  br i1 %call1, label %land.rhs, label %land.end

land.rhs:                                         ; preds = %lor.rhs
  %2 = load ptr, ptr %tok.addr, align 8
  %next = getelementptr inbounds %struct.Token, ptr %2, i32 0, i32 1
  %3 = load ptr, ptr %next, align 8
  %call2 = call zeroext i1 @equal(ptr noundef %3, ptr noundef @.str.69)
  br label %land.end

land.end:                                         ; preds = %land.rhs, %lor.rhs
  %4 = phi i1 [ false, %lor.rhs ], [ %call2, %land.rhs ]
  br label %lor.end

lor.end:                                          ; preds = %land.end, %entry
  %5 = phi i1 [ true, %entry ], [ %4, %land.end ]
  ret i1 %5
}

; Function Attrs: nounwind uwtable
define internal void @array_initializer2(ptr noundef %rest, ptr noundef %tok, ptr noundef %init, i32 noundef %i) #0 {
entry:
  %rest.addr = alloca ptr, align 8
  %tok.addr = alloca ptr, align 8
  %init.addr = alloca ptr, align 8
  %i.addr = alloca i32, align 4
  %len = alloca i32, align 4
  %start = alloca ptr, align 8
  store ptr %rest, ptr %rest.addr, align 8
  store ptr %tok, ptr %tok.addr, align 8
  store ptr %init, ptr %init.addr, align 8
  store i32 %i, ptr %i.addr, align 4
  %0 = load ptr, ptr %init.addr, align 8
  %is_flexible = getelementptr inbounds %struct.Initializer, ptr %0, i32 0, i32 3
  %1 = load i8, ptr %is_flexible, align 8
  %tobool = trunc i8 %1 to i1
  br i1 %tobool, label %if.then, label %if.end

if.then:                                          ; preds = %entry
  %2 = load ptr, ptr %tok.addr, align 8
  %3 = load ptr, ptr %init.addr, align 8
  %ty = getelementptr inbounds %struct.Initializer, ptr %3, i32 0, i32 1
  %4 = load ptr, ptr %ty, align 8
  %call = call i32 @count_array_init_elements(ptr noundef %2, ptr noundef %4)
  store i32 %call, ptr %len, align 4
  %5 = load ptr, ptr %init.addr, align 8
  %6 = load ptr, ptr %init.addr, align 8
  %ty1 = getelementptr inbounds %struct.Initializer, ptr %6, i32 0, i32 1
  %7 = load ptr, ptr %ty1, align 8
  %base = getelementptr inbounds %struct.Type, ptr %7, i32 0, i32 6
  %8 = load ptr, ptr %base, align 8
  %9 = load i32, ptr %len, align 4
  %call2 = call ptr @array_of(ptr noundef %8, i32 noundef %9)
  %call3 = call ptr @new_initializer(ptr noundef %call2, i1 noundef zeroext false)
  call void @llvm.memcpy.p0.p0.i64(ptr align 8 %5, ptr align 8 %call3, i64 56, i1 false)
  br label %if.end

if.end:                                           ; preds = %if.then, %entry
  br label %for.cond

for.cond:                                         ; preds = %for.inc, %if.end
  %10 = load i32, ptr %i.addr, align 4
  %11 = load ptr, ptr %init.addr, align 8
  %ty4 = getelementptr inbounds %struct.Initializer, ptr %11, i32 0, i32 1
  %12 = load ptr, ptr %ty4, align 8
  %array_len = getelementptr inbounds %struct.Type, ptr %12, i32 0, i32 9
  %13 = load i32, ptr %array_len, align 8
  %cmp = icmp slt i32 %10, %13
  br i1 %cmp, label %land.rhs, label %land.end

land.rhs:                                         ; preds = %for.cond
  %14 = load ptr, ptr %tok.addr, align 8
  %call5 = call zeroext i1 @is_end(ptr noundef %14)
  %lnot = xor i1 %call5, true
  br label %land.end

land.end:                                         ; preds = %land.rhs, %for.cond
  %15 = phi i1 [ false, %for.cond ], [ %lnot, %land.rhs ]
  br i1 %15, label %for.body, label %for.end

for.body:                                         ; preds = %land.end
  %16 = load ptr, ptr %tok.addr, align 8
  store ptr %16, ptr %start, align 8
  %17 = load i32, ptr %i.addr, align 4
  %cmp6 = icmp sgt i32 %17, 0
  br i1 %cmp6, label %if.then7, label %if.end9

if.then7:                                         ; preds = %for.body
  %18 = load ptr, ptr %tok.addr, align 8
  %call8 = call ptr @skip(ptr noundef %18, ptr noundef @.str.57)
  store ptr %call8, ptr %tok.addr, align 8
  br label %if.end9

if.end9:                                          ; preds = %if.then7, %for.body
  %19 = load ptr, ptr %tok.addr, align 8
  %call10 = call zeroext i1 @equal(ptr noundef %19, ptr noundef @.str.56)
  br i1 %call10, label %if.then12, label %lor.lhs.false

lor.lhs.false:                                    ; preds = %if.end9
  %20 = load ptr, ptr %tok.addr, align 8
  %call11 = call zeroext i1 @equal(ptr noundef %20, ptr noundef @.str.67)
  br i1 %call11, label %if.then12, label %if.end13

if.then12:                                        ; preds = %lor.lhs.false, %if.end9
  %21 = load ptr, ptr %start, align 8
  %22 = load ptr, ptr %rest.addr, align 8
  store ptr %21, ptr %22, align 8
  br label %return

if.end13:                                         ; preds = %lor.lhs.false
  %23 = load ptr, ptr %tok.addr, align 8
  %24 = load ptr, ptr %init.addr, align 8
  %children = getelementptr inbounds %struct.Initializer, ptr %24, i32 0, i32 5
  %25 = load ptr, ptr %children, align 8
  %26 = load i32, ptr %i.addr, align 4
  %idxprom = sext i32 %26 to i64
  %arrayidx = getelementptr inbounds ptr, ptr %25, i64 %idxprom
  %27 = load ptr, ptr %arrayidx, align 8
  call void @initializer2(ptr noundef %tok.addr, ptr noundef %23, ptr noundef %27)
  br label %for.inc

for.inc:                                          ; preds = %if.end13
  %28 = load i32, ptr %i.addr, align 4
  %inc = add nsw i32 %28, 1
  store i32 %inc, ptr %i.addr, align 4
  br label %for.cond, !llvm.loop !40

for.end:                                          ; preds = %land.end
  %29 = load ptr, ptr %tok.addr, align 8
  %30 = load ptr, ptr %rest.addr, align 8
  store ptr %29, ptr %30, align 8
  br label %return

return:                                           ; preds = %for.end, %if.then12
  ret void
}