; Function Attrs: nounwind uwtable
define internal fastcc void @array_initializer2(ptr nocapture noundef writeonly %rest, ptr noundef %tok, ptr nocapture noundef %init, i32 noundef %i) unnamed_addr #0 {
entry:
  %tok.addr = alloca ptr, align 8
  store ptr %tok, ptr %tok.addr, align 8
  %is_flexible = getelementptr inbounds %struct.Initializer, ptr %init, i64 0, i32 3
  %0 = load i8, ptr %is_flexible, align 8
  %1 = and i8 %0, 1
  %tobool.not = icmp eq i8 %1, 0
  br i1 %tobool.not, label %if.end, label %if.then

if.then:                                          ; preds = %entry
  %ty = getelementptr inbounds %struct.Initializer, ptr %init, i64 0, i32 1
  %2 = load ptr, ptr %ty, align 8
  %call = tail call fastcc i32 @count_array_init_elements(ptr noundef %tok, ptr noundef %2)
  %3 = load ptr, ptr %ty, align 8
  %base = getelementptr inbounds %struct.Type, ptr %3, i64 0, i32 6
  %4 = load ptr, ptr %base, align 8
  %call2 = tail call ptr @array_of(ptr noundef %4, i32 noundef %call) #13
  %call3 = tail call fastcc ptr @new_initializer(ptr noundef %call2, i1 noundef zeroext false)
  tail call void @llvm.memcpy.p0.p0.i64(ptr noundef nonnull align 8 dereferenceable(56) %init, ptr noundef nonnull align 8 dereferenceable(56) %call3, i64 56, i1 false)
  br label %if.end

if.end:                                           ; preds = %if.then, %entry
  %ty4 = getelementptr inbounds %struct.Initializer, ptr %init, i64 0, i32 1
  %5 = load ptr, ptr %ty4, align 8
  %array_len11 = getelementptr inbounds %struct.Type, ptr %5, i64 0, i32 9
  %6 = load i32, ptr %array_len11, align 8
  %cmp12 = icmp sgt i32 %6, %i
  br i1 %cmp12, label %land.rhs.lr.ph, label %return

land.rhs.lr.ph:                                   ; preds = %if.end
  %children = getelementptr inbounds %struct.Initializer, ptr %init, i64 0, i32 5
  %7 = sext i32 %i to i64
  br label %land.rhs

land.rhs:                                         ; preds = %land.rhs.lr.ph, %if.end13
  %indvars.iv = phi i64 [ %7, %land.rhs.lr.ph ], [ %indvars.iv.next, %if.end13 ]
  %8 = load ptr, ptr %tok.addr, align 8
  %call.i = call zeroext i1 @equal(ptr noundef %8, ptr noundef nonnull @.str.69) #13
  br i1 %call.i, label %for.end.loopexit, label %lor.rhs.i

lor.rhs.i:                                        ; preds = %land.rhs
  %call1.i = call zeroext i1 @equal(ptr noundef %8, ptr noundef nonnull @.str.57) #13
  br i1 %call1.i, label %is_end.exit, label %for.body

is_end.exit:                                      ; preds = %lor.rhs.i
  %next.i = getelementptr inbounds %struct.Token, ptr %8, i64 0, i32 1
  %9 = load ptr, ptr %next.i, align 8
  %call2.i = call zeroext i1 @equal(ptr noundef %9, ptr noundef nonnull @.str.69) #13
  br i1 %call2.i, label %for.end.loopexit, label %for.body

for.body:                                         ; preds = %lor.rhs.i, %is_end.exit
  %10 = load ptr, ptr %tok.addr, align 8
  %cmp6 = icmp sgt i64 %indvars.iv, 0
  br i1 %cmp6, label %if.then7, label %if.end9

if.then7:                                         ; preds = %for.body
  %call8 = call ptr @skip(ptr noundef %10, ptr noundef nonnull @.str.57) #13
  store ptr %call8, ptr %tok.addr, align 8
  br label %if.end9

if.end9:                                          ; preds = %if.then7, %for.body
  %11 = phi ptr [ %call8, %if.then7 ], [ %10, %for.body ]
  %call10 = call zeroext i1 @equal(ptr noundef %11, ptr noundef nonnull @.str.56) #13
  br i1 %call10, label %return, label %lor.lhs.false

lor.lhs.false:                                    ; preds = %if.end9
  %12 = load ptr, ptr %tok.addr, align 8
  %call11 = call zeroext i1 @equal(ptr noundef %12, ptr noundef nonnull @.str.67) #13
  br i1 %call11, label %return, label %if.end13

if.end13:                                         ; preds = %lor.lhs.false
  %13 = load ptr, ptr %tok.addr, align 8
  %14 = load ptr, ptr %children, align 8
  %arrayidx = getelementptr inbounds ptr, ptr %14, i64 %indvars.iv
  %15 = load ptr, ptr %arrayidx, align 8
  call fastcc void @initializer2(ptr noundef nonnull %tok.addr, ptr noundef %13, ptr noundef %15)
  %indvars.iv.next = add nsw i64 %indvars.iv, 1
  %16 = load ptr, ptr %ty4, align 8
  %array_len = getelementptr inbounds %struct.Type, ptr %16, i64 0, i32 9
  %17 = load i32, ptr %array_len, align 8
  %18 = sext i32 %17 to i64
  %cmp = icmp slt i64 %indvars.iv.next, %18
  br i1 %cmp, label %land.rhs, label %for.end.loopexit, !llvm.loop !45

for.end.loopexit:                                 ; preds = %land.rhs, %if.end13, %is_end.exit
  %.pre = load ptr, ptr %tok.addr, align 8
  br label %return

return:                                           ; preds = %if.end9, %lor.lhs.false, %if.end, %for.end.loopexit
  %storemerge = phi ptr [ %.pre, %for.end.loopexit ], [ %tok, %if.end ], [ %10, %lor.lhs.false ], [ %10, %if.end9 ]
  store ptr %storemerge, ptr %rest, align 8
  ret void
}